(dp0
Vengine
p1
Vpdflatex
p2
sVpackages
p3
c__builtin__
set
p4
((lp5
Vhyperref
p6
aVgraphicx
p7
aVfullpage
p8
aVlistings
p9
aVupquote
p10
aVtextcomp
p11
aVarray
p12
aVinputenc
p13
atp14
Rp15
sVfiles_with_guttermarks
p16
g4
((lp17
V/Users/lapalme/Dropbox/gophipy/Paper/./GoPhiPy.tex
p18
aS'GoPhiPy.tex'
p19
aV/Users/lapalme/Dropbox/gophipy/Paper/GoPhiPy.tex
p20
atp21
Rp22
sVsynctex
p23
I01
s.